target datalayout = "e-m:e-p270:32:32-p271:32:32-p272:64:64-i64:64-i128:128-f80:128-n8:16:32:64-S128"
target triple = "x86_64-pc-linux-gnu"

%"class.open3d::core::Dtype" = type { i32, i64, [16 x i8] }

; Function Attrs: mustprogress nounwind ssp uwtable
define noundef zeroext i1 @_ZNK6open3d4core5DtypeeqERKS1_(ptr noundef nonnull align 8 dereferenceable(32) %0, ptr noundef nonnull align 8 dereferenceable(32) %1) #4 align 2 {
  %3 = alloca ptr, align 8
  %4 = alloca ptr, align 8
  store ptr %0, ptr %3, align 8, !tbaa !35
  store ptr %1, ptr %4, align 8, !tbaa !35
  %5 = load ptr, ptr %3, align 8
  %6 = getelementptr inbounds nuw %"class.open3d::core::Dtype", ptr %5, i32 0, i32 0
  %7 = load i32, ptr %6, align 8, !tbaa !37
  %8 = load ptr, ptr %4, align 8, !tbaa !35
  %9 = getelementptr inbounds nuw %"class.open3d::core::Dtype", ptr %8, i32 0, i32 0
  %10 = load i32, ptr %9, align 8, !tbaa !37
  %11 = icmp eq i32 %7, %10
  br i1 %11, label %12, label %27

12:                                               ; preds = %2
  %13 = getelementptr inbounds nuw %"class.open3d::core::Dtype", ptr %5, i32 0, i32 1
  %14 = load i64, ptr %13, align 8, !tbaa !39
  %15 = load ptr, ptr %4, align 8, !tbaa !35
  %16 = getelementptr inbounds nuw %"class.open3d::core::Dtype", ptr %15, i32 0, i32 1
  %17 = load i64, ptr %16, align 8, !tbaa !39
  %18 = icmp eq i64 %14, %17
  br i1 %18, label %19, label %27

19:                                               ; preds = %12
  %20 = getelementptr inbounds nuw %"class.open3d::core::Dtype", ptr %5, i32 0, i32 2
  %21 = getelementptr inbounds [16 x i8], ptr %20, i64 0, i64 0
  %22 = load ptr, ptr %4, align 8, !tbaa !35
  %23 = getelementptr inbounds nuw %"class.open3d::core::Dtype", ptr %22, i32 0, i32 2
  %24 = getelementptr inbounds [16 x i8], ptr %23, i64 0, i64 0
  %25 = call i32 @strcmp(ptr noundef %21, ptr noundef %24) #24
  %26 = icmp eq i32 %25, 0
  br label %27

27:                                               ; preds = %19, %12, %2
  %28 = phi i1 [ false, %12 ], [ false, %2 ], [ %26, %19 ]
  ret i1 %28
}