; Function Attrs: mustprogress nofree norecurse nounwind ssp willreturn memory(argmem: read) uwtable
define noundef zeroext i1 @_ZNK6open3d4core5DtypeeqERKS1_(ptr noundef nonnull readonly align 8 captures(none) dereferenceable(32) %0, ptr noundef nonnull readonly align 8 captures(none) dereferenceable(32) %1) local_unnamed_addr #23 align 2 {
  %3 = load i32, ptr %0, align 8, !tbaa !4
  %4 = load i32, ptr %1, align 8, !tbaa !4
  %5 = icmp eq i32 %3, %4
  br i1 %5, label %6, label %17

6:                                                ; preds = %2
  %7 = getelementptr inbounds nuw i8, ptr %0, i64 8
  %8 = load i64, ptr %7, align 8, !tbaa !10
  %9 = getelementptr inbounds nuw i8, ptr %1, i64 8
  %10 = load i64, ptr %9, align 8, !tbaa !10
  %11 = icmp eq i64 %8, %10
  br i1 %11, label %12, label %17

12:                                               ; preds = %6
  %13 = getelementptr inbounds nuw i8, ptr %0, i64 16
  %14 = getelementptr inbounds nuw i8, ptr %1, i64 16
  %15 = tail call i32 @strcmp(ptr noundef nonnull dereferenceable(1) %13, ptr noundef nonnull dereferenceable(1) %14) #34
  %16 = icmp eq i32 %15, 0
  br label %17

17:                                               ; preds = %12, %6, %2
  %18 = phi i1 [ false, %6 ], [ false, %2 ], [ %16, %12 ]
  ret i1 %18
}